target datalayout = "e-m:e-p270:32:32-p271:32:32-p272:64:64-i64:64-i128:128-f80:128-n8:16:32:64-S128"
target triple = "x86_64-unknown-linux-gnu"

%"class.sat::literal" = type { i32 }
%"class.sat::solver" = type { %"class.sat::solver_core", i8, [7 x i8], %"struct.sat::config", %"struct.sat::stats", %class.scoped_ptr, %class.scoped_ptr.0, ptr, %"class.sat::drat", [2 x %"class.sat::clause_allocator"], i8, %class.random_gen, %"class.sat::cleaner", %class.svector.11, %"class.sat::model_converter", i8, %"class.sat::simplifier", %"class.sat::scc", %"class.sat::asymm_branch", %"class.sat::probing", i8, [7 x i8], %"class.sat::mus", %"class.sat::binspr", i8, i8, [6 x i8], %"class.sat::justification", %"class.sat::literal", %class.ptr_vector.20, %class.ptr_vector.20, i32, %class.svector.4, %class.svector.4, %class.svector.4, %class.svector.4, %class.vector.40, %class.svector.11, %class.svector.41, %class.svector.14, %class.svector.14, %class.svector.14, %class.svector.14, %class.svector.14, %class.svector.4, %class.svector.4, i32, %class.svector.26, %class.svector.4, i32, %class.svector.43, %class.svector.43, %class.svector.43, %class.svector.43, %class.svector.43, i32, double, %class.svector.14, %class.svector.14, %class.svector.14, %class.svector.24, i32, i32, i32, i32, i32, i32, %"struct.sat::backoff", i32, i32, %"struct.sat::backoff", %"struct.sat::backoff", %class.var_queue, i32, i32, i32, %class.ema, %class.ema, %class.ema, %class.ema, %class.ema, %class.svector.26, %class.svector.28, %"class.std::__cxx11::basic_string", i8, %class.visit_helper, %class.svector.45, %class.scoped_limit_trail, %class.stopwatch, %class.params_ref, %"struct.sat::no_drat_params", %class.scoped_ptr.38, %class.svector.26, %"class.sat::literal_set", %"class.sat::literal_set", %class.svector.26, i32, i32, i32, i32, i8, ptr, ptr, %class.statistics, i32, i32, i32, i32, i8, i32, i32, i32, i32, i32, i32, i32, double, i32, double, i8, i8, %class.svector.26, i8, %class.svector.43, i32, i32, i32, %class.svector.26, %class.svector.26, %class.svector.24, %class.svector.4, %class.approx_set_tpl, %class.svector.26, %class.svector.26, %class.vector.10, %class.svector.26, %class.svector.36, %class.u_map, %class.svector.26 }
%"class.sat::solver_core" = type { ptr, ptr }
%"struct.sat::config" = type <{ i64, i32, i32, i32, i8, [3 x i8], i32, i32, double, i32, i8, [3 x i8], i32, i8, [3 x i8], i32, [4 x i8], double, double, i32, i32, double, double, i32, [4 x i8], %class.symbol, double, i32, i32, i8, [3 x i8], i32, i32, i8, [3 x i8], i32, i8, [3 x i8], i32, i8, [3 x i8], i32, i8, i8, i8, i8, i32, i8, i8, i8, i8, i8, i8, i8, i8, i32, i8, i8, i8, i8, i32, double, i32, [4 x i8], double, double, double, double, i32, i8, i8, [2 x i8], double, i8, i8, [2 x i8], i32, double, i32, i32, i32, i32, i32, i32, i32, i32, i8, i8, i8, i8, i32, i32, i8, i8, i8, i8, i8, i8, i8, [5 x i8], %class.symbol, i8, i8, i8, i8, i8, i8, [2 x i8], i32, i32, i32, i8, [3 x i8], double, double, double, double, double, i8, [7 x i8] }>
%class.symbol = type { ptr }
%"struct.sat::stats" = type { i32, i32, i32, i32, i32, i32, i32, i32, i32, i32, i32, i32, i32, i32, i32, i32, i32, i32, i32, i32, i32 }
%class.scoped_ptr = type { ptr }
%class.scoped_ptr.0 = type { ptr }
%"class.sat::drat" = type { ptr, %class.svector, ptr, %"class.sat::clause_allocator", ptr, ptr, %class.svector.6, %class.svector.8, %class.vector.10, %class.svector.11, i8, i8, i8, i8, i8, %"struct.sat::drat::stats" }
%class.svector = type { %class.vector }
%class.vector = type { ptr }
%"class.sat::clause_allocator" = type { %class.sat_allocator, %class.id_gen }
%class.sat_allocator = type { ptr, i64, %class.ptr_vector, ptr, [65 x %class.ptr_vector.2] }
%class.ptr_vector = type { %class.vector.1 }
%class.vector.1 = type { ptr }
%class.ptr_vector.2 = type { %class.vector.3 }
%class.vector.3 = type { ptr }
%class.id_gen = type { i32, %class.svector.4 }
%class.svector.6 = type { %class.vector.7 }
%class.vector.7 = type { ptr }
%class.svector.8 = type { %class.vector.9 }
%class.vector.9 = type { ptr }
%"struct.sat::drat::stats" = type { i32, i32, i32, i32 }
%class.random_gen = type { i32 }
%"class.sat::cleaner" = type { ptr, i32, i32, i32, i32 }
%"class.sat::model_converter" = type { %class.vector.13, i32, %class.svector.14, ptr, %class.svector.16 }
%class.vector.13 = type { ptr }
%class.svector.16 = type { %class.vector.17 }
%class.vector.17 = type { ptr }
%"class.sat::simplifier" = type { ptr, i32, %"class.sat::use_list", %"class.sat::ext_use_list", %"class.sat::clause_set", %class.svector.22, i32, %class.tracked_uint_set, i8, %"class.sat::tmp_clause", %class.svector.24, i32, i32, i8, i8, i8, i8, i32, i8, i8, i32, i8, i32, i8, i8, i32, i32, i32, i32, i32, i32, i32, i32, i32, i32, i8, i32, i8, i8, i32, i32, i32, i32, i32, i32, i32, i32, i32, i32, i32, i8, i32, %class.ptr_vector.20, %class.svector.26, %class.svector.28, %class.svector.28, %class.svector.26 }
%"class.sat::use_list" = type { %class.vector.18 }
%class.vector.18 = type { ptr }
%"class.sat::ext_use_list" = type { %class.vector.19 }
%class.vector.19 = type { ptr }
%"class.sat::clause_set" = type { %class.svector.4, %class.ptr_vector.20 }
%class.svector.22 = type { %class.vector.23 }
%class.vector.23 = type { ptr }
%class.tracked_uint_set = type { %class.svector.24, %class.svector.4 }
%"class.sat::tmp_clause" = type { ptr }
%"class.sat::scc" = type { ptr, i8, i8, i32, i32, %"class.sat::big" }
%"class.sat::big" = type { ptr, i32, %class.vector.30, %class.svector.14, %class.svector.31, %class.svector.31, %class.svector.26, %class.svector.26, i8, i8, %class.vector.30 }
%class.svector.31 = type { %class.vector.32 }
%class.vector.32 = type { ptr }
%class.vector.30 = type { ptr }
%"class.sat::asymm_branch" = type { ptr, %class.params_ref, i64, %class.random_gen, i32, i32, i8, i32, i32, i8, i8, i64, i32, i32, i32, %class.svector.26, %class.svector.26, %class.svector.33, %class.svector.33, %class.svector.26, %class.svector.26 }
%class.svector.33 = type { %class.vector.34 }
%class.vector.34 = type { ptr }
%"class.sat::probing" = type { ptr, i32, %"class.sat::literal_set", %class.svector.26, i32, i8, i32, i8, i8, i64, i32, %class.vector.35, %class.svector.36, %"class.sat::big" }
%class.vector.35 = type { ptr }
%"class.sat::mus" = type <{ ptr, %class.svector.26, %class.svector.26, i8, [7 x i8], %class.svector.11, i32, [4 x i8] }>
%"class.sat::binspr" = type <{ ptr, %class.scoped_ptr.38, i32, i32, %class.vector.39, i32, i32, %class.svector.14, %class.svector.14, %class.svector.26, %class.svector.26, i32, i32, i32, i32, i32, [4 x i32], [5 x i32], [5 x i32], [4 x i8] }>
%class.vector.39 = type { ptr }
%"class.sat::justification" = type <{ i32, [4 x i8], i64, i32, [4 x i8] }>
%class.ptr_vector.20 = type { %class.vector.21 }
%class.vector.21 = type { ptr }
%class.vector.40 = type { ptr }
%class.svector.11 = type { %class.vector.12 }
%class.vector.12 = type { ptr }
%class.svector.41 = type { %class.vector.42 }
%class.vector.42 = type { ptr }
%class.svector.14 = type { %class.vector.15 }
%class.vector.15 = type { ptr }
%"struct.sat::backoff" = type { i32, i32, i32, i32, i32 }
%class.var_queue = type { %class.heap }
%class.heap = type { %"struct.var_queue<svector<unsigned int>>::lt", %class.svector.31, %class.svector.31 }
%"struct.var_queue<svector<unsigned int>>::lt" = type { ptr }
%class.ema = type { double, double, double, i32, i32 }
%class.svector.28 = type { %class.vector.29 }
%class.vector.29 = type { ptr }
%"class.std::__cxx11::basic_string" = type { %"struct.std::__cxx11::basic_string<char>::_Alloc_hider", i64, %union.anon }
%"struct.std::__cxx11::basic_string<char>::_Alloc_hider" = type { ptr }
%union.anon = type { i64, [8 x i8] }
%class.visit_helper = type { %class.svector.4, i32, i32 }
%class.svector.45 = type { %class.vector.46 }
%class.vector.46 = type { ptr }
%class.scoped_limit_trail = type { %class.svector.4, i32, i32 }
%class.stopwatch = type <{ %"class.std::chrono::time_point", %"class.std::chrono::duration", i8, [7 x i8] }>
%"class.std::chrono::time_point" = type { %"class.std::chrono::duration" }
%"class.std::chrono::duration" = type { i64 }
%class.params_ref = type { ptr }
%"struct.sat::no_drat_params" = type { %class.params_ref }
%class.scoped_ptr.38 = type { ptr }
%"class.sat::literal_set" = type { %class.tracked_uint_set }
%class.statistics = type { %class.svector.47, %class.svector.49 }
%class.svector.47 = type { %class.vector.48 }
%class.vector.48 = type { ptr }
%class.svector.49 = type { %class.vector.50 }
%class.vector.50 = type { ptr }
%class.svector.43 = type { %class.vector.44 }
%class.vector.44 = type { ptr }
%class.svector.24 = type { %class.vector.25 }
%class.vector.25 = type { ptr }
%class.svector.4 = type { %class.vector.5 }
%class.vector.5 = type { ptr }
%class.approx_set_tpl = type { i32 }
%class.vector.10 = type { ptr }
%class.svector.36 = type { %class.vector.37 }
%class.vector.37 = type { ptr }
%class.u_map = type { %class.map }
%class.map = type { %class.table2map }
%class.table2map = type { %class.core_hashtable }
%class.core_hashtable = type <{ ptr, i32, i32, i32, [4 x i8] }>
%class.svector.26 = type { %class.vector.27 }
%class.vector.27 = type { ptr }

; Function Attrs: mustprogress uwtable
define linkonce_odr hidden void @_Z7deallocIN3sat14cut_simplifierEEvPT_(ptr noundef %ptr) #5 comdat {
entry:
  %ptr.addr = alloca ptr, align 8
  store ptr %ptr, ptr %ptr.addr, align 8
  %0 = load ptr, ptr %ptr.addr, align 8
  %cmp = icmp eq ptr %0, null
  br i1 %cmp, label %if.then, label %if.end

if.then:                                          ; preds = %entry
  br label %return

if.end:                                           ; preds = %entry
  %1 = load ptr, ptr %ptr.addr, align 8
  call void @_ZN3sat14cut_simplifierD1Ev(ptr noundef nonnull align 8 dereferenceable(600) %1) #3
  %2 = load ptr, ptr %ptr.addr, align 8
  call void @_ZN6memory10deallocateEPv(ptr noundef %2)
  br label %return

return:                                           ; preds = %if.end, %if.then
  ret void
}

; Function Attrs: mustprogress uwtable
define linkonce_odr hidden noundef nonnull align 8 dereferenceable(8) ptr @_ZN10scoped_ptrIN3sat14cut_simplifierEEaSEPS1_(ptr noundef nonnull align 8 dereferenceable(8) %this, ptr noundef %n) #5 comdat align 2 {
entry:
  %this.addr = alloca ptr, align 8
  %n.addr = alloca ptr, align 8
  store ptr %this, ptr %this.addr, align 8
  store ptr %n, ptr %n.addr, align 8
  %this1 = load ptr, ptr %this.addr, align 8
  %m_ptr = getelementptr inbounds %class.scoped_ptr.0, ptr %this1, i32 0, i32 0
  %0 = load ptr, ptr %m_ptr, align 8
  %1 = load ptr, ptr %n.addr, align 8
  %cmp = icmp ne ptr %0, %1
  br i1 %cmp, label %if.then, label %if.end

if.then:                                          ; preds = %entry
  %m_ptr2 = getelementptr inbounds %class.scoped_ptr.0, ptr %this1, i32 0, i32 0
  %2 = load ptr, ptr %m_ptr2, align 8
  call void @_Z7deallocIN3sat14cut_simplifierEEvPT_(ptr noundef %2)
  %3 = load ptr, ptr %n.addr, align 8
  %m_ptr3 = getelementptr inbounds %class.scoped_ptr.0, ptr %this1, i32 0, i32 0
  store ptr %3, ptr %m_ptr3, align 8
  br label %if.end

if.end:                                           ; preds = %if.then, %entry
  ret ptr %this1
}

; Function Attrs: mustprogress nounwind uwtable
define linkonce_odr hidden noundef zeroext i1 @_ZNK6vectorIN3sat7literalELb0EjE5emptyEv(ptr noundef nonnull align 8 dereferenceable(8) %this) #4 comdat align 2 {
entry:
  %this.addr = alloca ptr, align 8
  store ptr %this, ptr %this.addr, align 8
  %this1 = load ptr, ptr %this.addr, align 8
  %m_data = getelementptr inbounds %class.vector.27, ptr %this1, i32 0, i32 0
  %0 = load ptr, ptr %m_data, align 8
  %cmp = icmp eq ptr %0, null
  br i1 %cmp, label %lor.end, label %lor.rhs

lor.rhs:                                          ; preds = %entry
  %m_data2 = getelementptr inbounds %class.vector.27, ptr %this1, i32 0, i32 0
  %1 = load ptr, ptr %m_data2, align 8
  %arrayidx = getelementptr inbounds i32, ptr %1, i64 -1
  %2 = load i32, ptr %arrayidx, align 4
  %cmp3 = icmp eq i32 %2, 0
  br label %lor.end

lor.end:                                          ; preds = %lor.rhs, %entry
  %3 = phi i1 [ true, %entry ], [ %cmp3, %lor.rhs ]
  ret i1 %3
}

; Function Attrs: mustprogress nounwind uwtable
define linkonce_odr hidden noundef zeroext i1 @_ZNK10scoped_ptrIN3sat14cut_simplifierEEcvbEv(ptr noundef nonnull align 8 dereferenceable(8) %this) #4 comdat align 2 {
entry:
  %this.addr = alloca ptr, align 8
  store ptr %this, ptr %this.addr, align 8
  %this1 = load ptr, ptr %this.addr, align 8
  %m_ptr = getelementptr inbounds %class.scoped_ptr.0, ptr %this1, i32 0, i32 0
  %0 = load ptr, ptr %m_ptr, align 8
  %cmp = icmp ne ptr %0, null
  ret i1 %cmp
}

; Function Attrs: mustprogress nounwind uwtable
define linkonce_odr hidden void @_ZN3ema9set_alphaEd(ptr noundef nonnull align 8 dereferenceable(32) %this, double noundef %alpha) #4 comdat align 2 {
entry:
  %this.addr = alloca ptr, align 8
  %alpha.addr = alloca double, align 8
  store ptr %this, ptr %this.addr, align 8
  store double %alpha, ptr %alpha.addr, align 8
  %this1 = load ptr, ptr %this.addr, align 8
  %0 = load double, ptr %alpha.addr, align 8
  %m_alpha = getelementptr inbounds %class.ema, ptr %this1, i32 0, i32 0
  store double %0, ptr %m_alpha, align 8
  ret void
}

; Function Attrs: mustprogress nounwind uwtable
define linkonce_odr hidden void @_ZN10random_gen8set_seedEj(ptr noundef nonnull align 4 dereferenceable(4) %this, i32 noundef %s) #4 comdat align 2 {
entry:
  %this.addr = alloca ptr, align 8
  %s.addr = alloca i32, align 4
  store ptr %this, ptr %this.addr, align 8
  store i32 %s, ptr %s.addr, align 4
  %this1 = load ptr, ptr %this.addr, align 8
  %0 = load i32, ptr %s.addr, align 4
  %m_data = getelementptr inbounds %class.random_gen, ptr %this1, i32 0, i32 0
  store i32 %0, ptr %m_data, align 4
  ret void
}

; Function Attrs: mustprogress uwtable
define linkonce_odr hidden void @_ZN10params_ref6appendERKS_(ptr noundef nonnull align 8 dereferenceable(8) %this, ptr noundef nonnull align 8 dereferenceable(8) %src) #5 comdat align 2 {
entry:
  %this.addr = alloca ptr, align 8
  %src.addr = alloca ptr, align 8
  store ptr %this, ptr %this.addr, align 8
  store ptr %src, ptr %src.addr, align 8
  %this1 = load ptr, ptr %this.addr, align 8
  %0 = load ptr, ptr %src.addr, align 8
  call void @_ZN10params_ref4copyERKS_(ptr noundef nonnull align 8 dereferenceable(8) %this1, ptr noundef nonnull align 8 dereferenceable(8) %0)
  ret void
}

; Function Attrs: mustprogress uwtable
define hidden void @_ZN3sat6solver11updt_paramsERK10params_ref(ptr noundef nonnull align 8 dereferenceable(4408) %this, ptr noundef nonnull align 8 dereferenceable(8) %p) #5 align 2 {
entry:
  %this.addr = alloca ptr, align 8
  %p.addr = alloca ptr, align 8
  store ptr %this, ptr %this.addr, align 8
  store ptr %p, ptr %p.addr, align 8
  %this1 = load ptr, ptr %this.addr, align 8
  %m_params = getelementptr inbounds %"class.sat::solver", ptr %this1, i32 0, i32 89
  %0 = load ptr, ptr %p.addr, align 8
  call void @_ZN10params_ref6appendERKS_(ptr noundef nonnull align 8 dereferenceable(8) %m_params, ptr noundef nonnull align 8 dereferenceable(8) %0)
  %m_config = getelementptr inbounds %"class.sat::solver", ptr %this1, i32 0, i32 3
  %1 = load ptr, ptr %p.addr, align 8
  call void @_ZN3sat6config11updt_paramsERK10params_ref(ptr noundef nonnull align 8 dereferenceable(409) %m_config, ptr noundef nonnull align 8 dereferenceable(8) %1)
  %m_simplifier = getelementptr inbounds %"class.sat::solver", ptr %this1, i32 0, i32 16
  %2 = load ptr, ptr %p.addr, align 8
  call void @_ZN3sat10simplifier11updt_paramsERK10params_ref(ptr noundef nonnull align 8 dereferenceable(288) %m_simplifier, ptr noundef nonnull align 8 dereferenceable(8) %2)
  %m_asymm_branch = getelementptr inbounds %"class.sat::solver", ptr %this1, i32 0, i32 18
  %3 = load ptr, ptr %p.addr, align 8
  call void @_ZN3sat12asymm_branch11updt_paramsERK10params_ref(ptr noundef nonnull align 8 dereferenceable(128) %m_asymm_branch, ptr noundef nonnull align 8 dereferenceable(8) %3)
  %m_probing = getelementptr inbounds %"class.sat::solver", ptr %this1, i32 0, i32 19
  %4 = load ptr, ptr %p.addr, align 8
  call void @_ZN3sat7probing11updt_paramsERK10params_ref(ptr noundef nonnull align 8 dereferenceable(168) %m_probing, ptr noundef nonnull align 8 dereferenceable(8) %4)
  %m_scc = getelementptr inbounds %"class.sat::solver", ptr %this1, i32 0, i32 17
  %5 = load ptr, ptr %p.addr, align 8
  call void @_ZN3sat3scc11updt_paramsERK10params_ref(ptr noundef nonnull align 8 dereferenceable(104) %m_scc, ptr noundef nonnull align 8 dereferenceable(8) %5)
  %m_rand = getelementptr inbounds %"class.sat::solver", ptr %this1, i32 0, i32 11
  %m_config2 = getelementptr inbounds %"class.sat::solver", ptr %this1, i32 0, i32 3
  %m_random_seed = getelementptr inbounds %"struct.sat::config", ptr %m_config2, i32 0, i32 27
  %6 = load i32, ptr %m_random_seed, align 8
  call void @_ZN10random_gen8set_seedEj(ptr noundef nonnull align 4 dereferenceable(4) %m_rand, i32 noundef %6)
  %m_config3 = getelementptr inbounds %"class.sat::solver", ptr %this1, i32 0, i32 3
  %m_step_size_init = getelementptr inbounds %"struct.sat::config", ptr %m_config3, i32 0, i32 113
  %7 = load double, ptr %m_step_size_init, align 8
  %m_step_size = getelementptr inbounds %"class.sat::solver", ptr %this1, i32 0, i32 56
  store double %7, ptr %m_step_size, align 8
  %m_drat = getelementptr inbounds %"class.sat::solver", ptr %this1, i32 0, i32 8
  call void @_ZN3sat4drat11updt_configEv(ptr noundef nonnull align 8 dereferenceable(664) %m_drat)
  %m_fast_glue_avg = getelementptr inbounds %"class.sat::solver", ptr %this1, i32 0, i32 76
  %m_config4 = getelementptr inbounds %"class.sat::solver", ptr %this1, i32 0, i32 3
  %m_fast_glue_avg5 = getelementptr inbounds %"struct.sat::config", ptr %m_config4, i32 0, i32 21
  %8 = load double, ptr %m_fast_glue_avg5, align 8
  call void @_ZN3ema9set_alphaEd(ptr noundef nonnull align 8 dereferenceable(32) %m_fast_glue_avg, double noundef %8)
  %m_slow_glue_avg = getelementptr inbounds %"class.sat::solver", ptr %this1, i32 0, i32 77
  %m_config6 = getelementptr inbounds %"class.sat::solver", ptr %this1, i32 0, i32 3
  %m_slow_glue_avg7 = getelementptr inbounds %"struct.sat::config", ptr %m_config6, i32 0, i32 22
  %9 = load double, ptr %m_slow_glue_avg7, align 8
  call void @_ZN3ema9set_alphaEd(ptr noundef nonnull align 8 dereferenceable(32) %m_slow_glue_avg, double noundef %9)
  %m_fast_glue_backup = getelementptr inbounds %"class.sat::solver", ptr %this1, i32 0, i32 78
  %m_config8 = getelementptr inbounds %"class.sat::solver", ptr %this1, i32 0, i32 3
  %m_fast_glue_avg9 = getelementptr inbounds %"struct.sat::config", ptr %m_config8, i32 0, i32 21
  %10 = load double, ptr %m_fast_glue_avg9, align 8
  call void @_ZN3ema9set_alphaEd(ptr noundef nonnull align 8 dereferenceable(32) %m_fast_glue_backup, double noundef %10)
  %m_slow_glue_backup = getelementptr inbounds %"class.sat::solver", ptr %this1, i32 0, i32 79
  %m_config10 = getelementptr inbounds %"class.sat::solver", ptr %this1, i32 0, i32 3
  %m_slow_glue_avg11 = getelementptr inbounds %"struct.sat::config", ptr %m_config10, i32 0, i32 22
  %11 = load double, ptr %m_slow_glue_avg11, align 8
  call void @_ZN3ema9set_alphaEd(ptr noundef nonnull align 8 dereferenceable(32) %m_slow_glue_backup, double noundef %11)
  %m_trail_avg = getelementptr inbounds %"class.sat::solver", ptr %this1, i32 0, i32 80
  %m_config12 = getelementptr inbounds %"class.sat::solver", ptr %this1, i32 0, i32 3
  %m_slow_glue_avg13 = getelementptr inbounds %"struct.sat::config", ptr %m_config12, i32 0, i32 22
  %12 = load double, ptr %m_slow_glue_avg13, align 8
  call void @_ZN3ema9set_alphaEd(ptr noundef nonnull align 8 dereferenceable(32) %m_trail_avg, double noundef %12)
  %m_config14 = getelementptr inbounds %"class.sat::solver", ptr %this1, i32 0, i32 3
  %m_cut_simplify = getelementptr inbounds %"struct.sat::config", ptr %m_config14, i32 0, i32 44
  %13 = load i8, ptr %m_cut_simplify, align 2
  %tobool = trunc i8 %13 to i1
  br i1 %tobool, label %land.lhs.true, label %if.end

land.lhs.true:                                    ; preds = %entry
  %m_cut_simplifier = getelementptr inbounds %"class.sat::solver", ptr %this1, i32 0, i32 6
  %call = call noundef zeroext i1 @_ZNK10scoped_ptrIN3sat14cut_simplifierEEcvbEv(ptr noundef nonnull align 8 dereferenceable(8) %m_cut_simplifier)
  br i1 %call, label %if.end, label %land.lhs.true15

land.lhs.true15:                                  ; preds = %land.lhs.true
  %m_user_scope_literals = getelementptr inbounds %"class.sat::solver", ptr %this1, i32 0, i32 133
  %call16 = call noundef zeroext i1 @_ZNK6vectorIN3sat7literalELb0EjE5emptyEv(ptr noundef nonnull align 8 dereferenceable(8) %m_user_scope_literals)
  br i1 %call16, label %if.then, label %if.end

if.then:                                          ; preds = %land.lhs.true15
  %call17 = call noalias noundef ptr @_ZN6memory8allocateEm(i64 noundef 600)
  call void @_ZN3sat14cut_simplifierC1ERNS_6solverE(ptr noundef nonnull align 8 dereferenceable(600) %call17, ptr noundef nonnull align 8 dereferenceable(4408) %this1)
  %m_cut_simplifier18 = getelementptr inbounds %"class.sat::solver", ptr %this1, i32 0, i32 6
  %call19 = call noundef nonnull align 8 dereferenceable(8) ptr @_ZN10scoped_ptrIN3sat14cut_simplifierEEaSEPS1_(ptr noundef nonnull align 8 dereferenceable(8) %m_cut_simplifier18, ptr noundef %call17)
  br label %if.end

if.end:                                           ; preds = %if.then, %land.lhs.true15, %land.lhs.true, %entry
  ret void
}