; Function Attrs: mustprogress uwtable
define hidden void @_ZN3sat6solver11updt_paramsERK10params_ref(ptr noundef nonnull align 8 dereferenceable(4408) %this, ptr noundef nonnull align 8 dereferenceable(8) %p) local_unnamed_addr #3 align 2 {
entry:
  %m_params = getelementptr inbounds i8, ptr %this, i64 4048
  tail call void @_ZN10params_ref4copyERKS_(ptr noundef nonnull align 8 dereferenceable(8) %m_params, ptr noundef nonnull align 8 dereferenceable(8) %p)
  %m_config = getelementptr inbounds i8, ptr %this, i64 24
  tail call void @_ZN3sat6config11updt_paramsERK10params_ref(ptr noundef nonnull align 8 dereferenceable(409) %m_config, ptr noundef nonnull align 8 dereferenceable(8) %p)
  %m_simplifier = getelementptr inbounds i8, ptr %this, i64 2440
  tail call void @_ZN3sat10simplifier11updt_paramsERK10params_ref(ptr noundef nonnull align 8 dereferenceable(288) %m_simplifier, ptr noundef nonnull align 8 dereferenceable(8) %p)
  %m_asymm_branch = getelementptr inbounds i8, ptr %this, i64 2832
  tail call void @_ZN3sat12asymm_branch11updt_paramsERK10params_ref(ptr noundef nonnull align 8 dereferenceable(128) %m_asymm_branch, ptr noundef nonnull align 8 dereferenceable(8) %p)
  %m_probing = getelementptr inbounds i8, ptr %this, i64 2960
  tail call void @_ZN3sat7probing11updt_paramsERK10params_ref(ptr noundef nonnull align 8 dereferenceable(168) %m_probing, ptr noundef nonnull align 8 dereferenceable(8) %p)
  %m_scc = getelementptr inbounds i8, ptr %this, i64 2728
  tail call void @_ZN3sat3scc11updt_paramsERK10params_ref(ptr noundef nonnull align 8 dereferenceable(104) %m_scc, ptr noundef nonnull align 8 dereferenceable(8) %p)
  %m_rand = getelementptr inbounds i8, ptr %this, i64 2356
  %m_random_seed = getelementptr inbounds i8, ptr %this, i64 152
  %0 = load i32, ptr %m_random_seed, align 8
  store i32 %0, ptr %m_rand, align 4
  %m_step_size_init = getelementptr inbounds i8, ptr %this, i64 392
  %1 = load double, ptr %m_step_size_init, align 8
  %m_step_size = getelementptr inbounds i8, ptr %this, i64 3592
  store double %1, ptr %m_step_size, align 8
  %m_drat = getelementptr inbounds i8, ptr %this, i64 552
  tail call void @_ZN3sat4drat11updt_configEv(ptr noundef nonnull align 8 dereferenceable(664) %m_drat)
  %m_fast_glue_avg = getelementptr inbounds i8, ptr %this, i64 3768
  %m_fast_glue_avg5 = getelementptr inbounds i8, ptr %this, i64 112
  %2 = load double, ptr %m_fast_glue_avg5, align 8
  store double %2, ptr %m_fast_glue_avg, align 8
  %m_slow_glue_avg = getelementptr inbounds i8, ptr %this, i64 3800
  %m_slow_glue_avg7 = getelementptr inbounds i8, ptr %this, i64 120
  %3 = load double, ptr %m_slow_glue_avg7, align 8
  store double %3, ptr %m_slow_glue_avg, align 8
  %m_fast_glue_backup = getelementptr inbounds i8, ptr %this, i64 3832
  store double %2, ptr %m_fast_glue_backup, align 8
  %m_slow_glue_backup = getelementptr inbounds i8, ptr %this, i64 3864
  store double %3, ptr %m_slow_glue_backup, align 8
  %m_trail_avg = getelementptr inbounds i8, ptr %this, i64 3896
  store double %3, ptr %m_trail_avg, align 8
  %m_cut_simplify = getelementptr inbounds i8, ptr %this, i64 198
  %4 = load i8, ptr %m_cut_simplify, align 2
  %5 = and i8 %4, 1
  %tobool.not = icmp eq i8 %5, 0
  br i1 %tobool.not, label %if.end, label %land.lhs.true

land.lhs.true:                                    ; preds = %entry
  %m_cut_simplifier = getelementptr inbounds i8, ptr %this, i64 536
  %6 = load ptr, ptr %m_cut_simplifier, align 8
  %cmp.i.not = icmp eq ptr %6, null
  br i1 %cmp.i.not, label %land.lhs.true15, label %if.end

land.lhs.true15:                                  ; preds = %land.lhs.true
  %m_user_scope_literals = getelementptr inbounds i8, ptr %this, i64 4344
  %7 = load ptr, ptr %m_user_scope_literals, align 8
  %cmp.i6 = icmp eq ptr %7, null
  br i1 %cmp.i6, label %if.then, label %_ZNK6vectorIN3sat7literalELb0EjE5emptyEv.exit

_ZNK6vectorIN3sat7literalELb0EjE5emptyEv.exit:    ; preds = %land.lhs.true15
  %arrayidx.i = getelementptr inbounds i8, ptr %7, i64 -4
  %8 = load i32, ptr %arrayidx.i, align 4
  %cmp3.i = icmp eq i32 %8, 0
  br i1 %cmp3.i, label %if.then, label %if.end

if.then:                                          ; preds = %land.lhs.true15, %_ZNK6vectorIN3sat7literalELb0EjE5emptyEv.exit
  %call17 = tail call noalias noundef ptr @_ZN6memory8allocateEm(i64 noundef 600)
  tail call void @_ZN3sat14cut_simplifierC1ERNS_6solverE(ptr noundef nonnull align 8 dereferenceable(600) %call17, ptr noundef nonnull align 8 dereferenceable(4408) %this)
  %9 = load ptr, ptr %m_cut_simplifier, align 8
  %cmp.not.i = icmp eq ptr %9, %call17
  br i1 %cmp.not.i, label %if.end, label %if.then.i

if.then.i:                                        ; preds = %if.then
  %cmp.i.i = icmp eq ptr %9, null
  br i1 %cmp.i.i, label %_Z7deallocIN3sat14cut_simplifierEEvPT_.exit.i, label %if.end.i.i

if.end.i.i:                                       ; preds = %if.then.i
  tail call void @_ZN3sat14cut_simplifierD1Ev(ptr noundef nonnull align 8 dereferenceable(600) %9) #32
  tail call void @_ZN6memory10deallocateEPv(ptr noundef nonnull %9)
  br label %_Z7deallocIN3sat14cut_simplifierEEvPT_.exit.i

_Z7deallocIN3sat14cut_simplifierEEvPT_.exit.i:    ; preds = %if.end.i.i, %if.then.i
  store ptr %call17, ptr %m_cut_simplifier, align 8
  br label %if.end

if.end:                                           ; preds = %_Z7deallocIN3sat14cut_simplifierEEvPT_.exit.i, %if.then, %_ZNK6vectorIN3sat7literalELb0EjE5emptyEv.exit, %land.lhs.true, %entry
  ret void
}